; Function Attrs: mustprogress nounwind willreturn memory(argmem: readwrite, inaccessiblemem: readwrite) uwtable
define noundef i32 @LZ4_freeStreamDecode(ptr noundef captures(address_is_null) %0) local_unnamed_addr #8 {
  %2 = icmp eq ptr %0, null
  br i1 %2, label %4, label %3

3:                                                ; preds = %1
  tail call void @free(ptr noundef nonnull %0) #18
  br label %4

4:                                                ; preds = %1, %3
  ret i32 0
}